target datalayout = "e-m:e-p270:32:32-p271:32:32-p272:64:64-i64:64-i128:128-f80:128-n8:16:32:64-S128"
target triple = "x86_64-pc-linux-gnu"

%"class.pxr::rapidjson::internal::Stack" = type { ptr, ptr, ptr, ptr, ptr, i64 }
%"struct.pxr::rapidjson::GenericStringStream" = type { ptr, ptr }
%"class.pxr::rapidjson::BasicOStreamWrapper" = type { ptr }
%"class.pxr::rapidjson::Writer" = type <{ ptr, %"class.pxr::rapidjson::internal::Stack", i32, i8, [3 x i8] }>
%"struct.pxr::rapidjson::Writer<pxr::rapidjson::BasicOStreamWrapper<std::basic_ostream<char>>>::Level" = type <{ i64, i8, [7 x i8] }>

; Function Attrs: mustprogress uwtable
define linkonce_odr void @_ZN3pxr9rapidjson19BasicOStreamWrapperISoE5FlushEv(ptr noundef nonnull align 8 dereferenceable(8) %0) #4 comdat align 2 {
  %2 = alloca ptr, align 8
  store ptr %0, ptr %2, align 8
  %3 = load ptr, ptr %2, align 8
  %4 = getelementptr inbounds nuw %"class.pxr::rapidjson::BasicOStreamWrapper", ptr %3, i32 0, i32 0
  %5 = load ptr, ptr %4, align 8
  %6 = call noundef nonnull align 8 dereferenceable(8) ptr @_ZNSo5flushEv(ptr noundef nonnull align 8 dereferenceable(8) %5)
  ret void
}

; Function Attrs: mustprogress uwtable
define linkonce_odr void @_ZN3pxr9rapidjson6WriterINS0_19BasicOStreamWrapperISoEENS0_4UTF8IcEES5_NS0_12CrtAllocatorELj0EE5FlushEv(ptr noundef nonnull align 8 dereferenceable(61) %0) #4 comdat align 2 {
  %2 = alloca ptr, align 8
  store ptr %0, ptr %2, align 8
  %3 = load ptr, ptr %2, align 8
  %4 = getelementptr inbounds nuw %"class.pxr::rapidjson::Writer", ptr %3, i32 0, i32 0
  %5 = load ptr, ptr %4, align 8
  call void @_ZN3pxr9rapidjson19BasicOStreamWrapperISoE5FlushEv(ptr noundef nonnull align 8 dereferenceable(8) %5)
  ret void
}

; Function Attrs: mustprogress nounwind uwtable
define linkonce_odr noundef zeroext i1 @_ZNK3pxr9rapidjson8internal5StackINS0_12CrtAllocatorEE5EmptyEv(ptr noundef nonnull align 8 dereferenceable(48) %0) #5 comdat align 2 {
  %2 = alloca ptr, align 8
  store ptr %0, ptr %2, align 8
  %3 = load ptr, ptr %2, align 8
  %4 = getelementptr inbounds nuw %"class.pxr::rapidjson::internal::Stack", ptr %3, i32 0, i32 3
  %5 = load ptr, ptr %4, align 8
  %6 = getelementptr inbounds nuw %"class.pxr::rapidjson::internal::Stack", ptr %3, i32 0, i32 2
  %7 = load ptr, ptr %6, align 8
  %8 = icmp eq ptr %5, %7
  ret i1 %8
}

; Function Attrs: mustprogress uwtable
define linkonce_odr void @_ZN3pxr9rapidjson9PutUnsafeINS0_19BasicOStreamWrapperISoEEEEvRT_NS4_2ChE(ptr noundef nonnull align 8 dereferenceable(8) %0, i8 noundef signext %1) #4 comdat {
  %3 = alloca ptr, align 8
  %4 = alloca i8, align 1
  store ptr %0, ptr %3, align 8
  store i8 %1, ptr %4, align 1
  %5 = load ptr, ptr %3, align 8
  %6 = load i8, ptr %4, align 1
  call void @_ZN3pxr9rapidjson19BasicOStreamWrapperISoE3PutEc(ptr noundef nonnull align 8 dereferenceable(8) %5, i8 noundef signext %6)
  ret void
}

; Function Attrs: mustprogress nounwind uwtable
define linkonce_odr noundef signext i8 @_ZN3pxr9rapidjson19GenericStringStreamINS0_4UTF8IcEEE4TakeEv(ptr noundef nonnull align 8 dereferenceable(16) %0) #5 comdat align 2 {
  %2 = alloca ptr, align 8
  store ptr %0, ptr %2, align 8
  %3 = load ptr, ptr %2, align 8
  %4 = getelementptr inbounds nuw %"struct.pxr::rapidjson::GenericStringStream", ptr %3, i32 0, i32 0
  %5 = load ptr, ptr %4, align 8
  %6 = getelementptr inbounds i8, ptr %5, i32 1
  store ptr %6, ptr %4, align 8
  %7 = load i8, ptr %5, align 1
  ret i8 %7
}

; Function Attrs: mustprogress nounwind uwtable
define linkonce_odr noundef i64 @_ZNK3pxr9rapidjson19GenericStringStreamINS0_4UTF8IcEEE4TellEv(ptr noundef nonnull align 8 dereferenceable(16) %0) #5 comdat align 2 {
  %2 = alloca ptr, align 8
  store ptr %0, ptr %2, align 8
  %3 = load ptr, ptr %2, align 8
  %4 = getelementptr inbounds nuw %"struct.pxr::rapidjson::GenericStringStream", ptr %3, i32 0, i32 0
  %5 = load ptr, ptr %4, align 8
  %6 = getelementptr inbounds nuw %"struct.pxr::rapidjson::GenericStringStream", ptr %3, i32 0, i32 1
  %7 = load ptr, ptr %6, align 8
  %8 = ptrtoint ptr %5 to i64
  %9 = ptrtoint ptr %7 to i64
  %10 = sub i64 %8, %9
  ret i64 %10
}

; Function Attrs: mustprogress nounwind uwtable
define linkonce_odr void @_ZN3pxr9rapidjson19GenericStringStreamINS0_4UTF8IcEEEC2EPKc(ptr noundef nonnull align 8 dereferenceable(16) %0, ptr noundef %1) unnamed_addr #5 comdat align 2 {
  %3 = alloca ptr, align 8
  %4 = alloca ptr, align 8
  store ptr %0, ptr %3, align 8
  store ptr %1, ptr %4, align 8
  %5 = load ptr, ptr %3, align 8
  %6 = getelementptr inbounds nuw %"struct.pxr::rapidjson::GenericStringStream", ptr %5, i32 0, i32 0
  %7 = load ptr, ptr %4, align 8
  store ptr %7, ptr %6, align 8
  %8 = getelementptr inbounds nuw %"struct.pxr::rapidjson::GenericStringStream", ptr %5, i32 0, i32 1
  %9 = load ptr, ptr %4, align 8
  store ptr %9, ptr %8, align 8
  ret void
}

; Function Attrs: mustprogress nounwind uwtable
define linkonce_odr void @_ZN3pxr9rapidjson10PutReserveINS0_19BasicOStreamWrapperISoEEEEvRT_m(ptr noundef nonnull align 8 dereferenceable(8) %0, i64 noundef %1) #5 comdat {
  %3 = alloca ptr, align 8
  %4 = alloca i64, align 8
  store ptr %0, ptr %3, align 8
  store i64 %1, ptr %4, align 8
  ret void
}

; Function Attrs: mustprogress uwtable
define linkonce_odr void @_ZN3pxr9rapidjson19BasicOStreamWrapperISoE3PutEc(ptr noundef nonnull align 8 dereferenceable(8) %0, i8 noundef signext %1) #4 comdat align 2 {
  %3 = alloca ptr, align 8
  %4 = alloca i8, align 1
  store ptr %0, ptr %3, align 8
  store i8 %1, ptr %4, align 1
  %5 = load ptr, ptr %3, align 8
  %6 = getelementptr inbounds nuw %"class.pxr::rapidjson::BasicOStreamWrapper", ptr %5, i32 0, i32 0
  %7 = load ptr, ptr %6, align 8
  %8 = load i8, ptr %4, align 1
  %9 = call noundef nonnull align 8 dereferenceable(8) ptr @_ZNSo3putEc(ptr noundef nonnull align 8 dereferenceable(8) %7, i8 noundef signext %8)
  ret void
}

; Function Attrs: mustprogress nounwind uwtable
define linkonce_odr noundef ptr @_ZN3pxr9rapidjson8internal5StackINS0_12CrtAllocatorEE3TopINS0_6WriterINS0_19BasicOStreamWrapperISoEENS0_4UTF8IcEESA_S3_Lj0EE5LevelEEEPT_v(ptr noundef nonnull align 8 dereferenceable(48) %0) #5 comdat align 2 {
  %2 = alloca ptr, align 8
  store ptr %0, ptr %2, align 8
  %3 = load ptr, ptr %2, align 8
  %4 = getelementptr inbounds nuw %"class.pxr::rapidjson::internal::Stack", ptr %3, i32 0, i32 3
  %5 = load ptr, ptr %4, align 8
  %6 = getelementptr inbounds i8, ptr %5, i64 -16
  ret ptr %6
}

; Function Attrs: mustprogress nounwind uwtable
define linkonce_odr noundef i64 @_ZNK3pxr9rapidjson8internal5StackINS0_12CrtAllocatorEE7GetSizeEv(ptr noundef nonnull align 8 dereferenceable(48) %0) #5 comdat align 2 {
  %2 = alloca ptr, align 8
  store ptr %0, ptr %2, align 8
  %3 = load ptr, ptr %2, align 8
  %4 = getelementptr inbounds nuw %"class.pxr::rapidjson::internal::Stack", ptr %3, i32 0, i32 3
  %5 = load ptr, ptr %4, align 8
  %6 = getelementptr inbounds nuw %"class.pxr::rapidjson::internal::Stack", ptr %3, i32 0, i32 2
  %7 = load ptr, ptr %6, align 8
  %8 = ptrtoint ptr %5 to i64
  %9 = ptrtoint ptr %7 to i64
  %10 = sub i64 %8, %9
  ret i64 %10
}

; Function Attrs: mustprogress uwtable
define linkonce_odr noundef zeroext i1 @_ZN3pxr9rapidjson6WriterINS0_19BasicOStreamWrapperISoEENS0_4UTF8IcEES5_NS0_12CrtAllocatorELj0EE8EndValueEb(ptr noundef nonnull align 8 dereferenceable(61) %0, i1 noundef zeroext %1) #4 comdat align 2 {
  %3 = alloca ptr, align 8
  %4 = alloca i8, align 1
  store ptr %0, ptr %3, align 8
  %5 = zext i1 %1 to i8
  store i8 %5, ptr %4, align 1
  %6 = load ptr, ptr %3, align 8
  %7 = getelementptr inbounds nuw %"class.pxr::rapidjson::Writer", ptr %6, i32 0, i32 1
  %8 = call noundef zeroext i1 @_ZNK3pxr9rapidjson8internal5StackINS0_12CrtAllocatorEE5EmptyEv(ptr noundef nonnull align 8 dereferenceable(48) %7)
  %9 = xor i1 %8, true
  %10 = xor i1 %9, true
  br i1 %10, label %11, label %12

11:                                               ; preds = %2
  call void @_ZN3pxr9rapidjson6WriterINS0_19BasicOStreamWrapperISoEENS0_4UTF8IcEES5_NS0_12CrtAllocatorELj0EE5FlushEv(ptr noundef nonnull align 8 dereferenceable(61) %6)
  br label %12

12:                                               ; preds = %11, %2
  %13 = load i8, ptr %4, align 1
  %14 = trunc i8 %13 to i1
  ret i1 %14
}

; Function Attrs: mustprogress uwtable
define linkonce_odr noundef zeroext i1 @_ZN3pxr9rapidjson6WriterINS0_19BasicOStreamWrapperISoEENS0_4UTF8IcEES5_NS0_12CrtAllocatorELj0EE13WriteRawValueEPKcm(ptr noundef nonnull align 8 dereferenceable(61) %0, ptr noundef %1, i64 noundef %2) #4 comdat align 2 {
  %4 = alloca ptr, align 8
  %5 = alloca ptr, align 8
  %6 = alloca i1, align 1
  %7 = alloca ptr, align 8
  %8 = alloca ptr, align 8
  %9 = alloca i64, align 8
  %10 = alloca %"struct.pxr::rapidjson::GenericStringStream", align 8
  store ptr %0, ptr %7, align 8
  store ptr %1, ptr %8, align 8
  store i64 %2, ptr %9, align 8
  %11 = load ptr, ptr %7, align 8
  %12 = getelementptr inbounds nuw %"class.pxr::rapidjson::Writer", ptr %11, i32 0, i32 0
  %13 = load ptr, ptr %12, align 8
  %14 = load i64, ptr %9, align 8
  call void @_ZN3pxr9rapidjson10PutReserveINS0_19BasicOStreamWrapperISoEEEEvRT_m(ptr noundef nonnull align 8 dereferenceable(8) %13, i64 noundef %14)
  %15 = load ptr, ptr %8, align 8
  call void @_ZN3pxr9rapidjson19GenericStringStreamINS0_4UTF8IcEEEC2EPKc(ptr noundef nonnull align 8 dereferenceable(16) %10, ptr noundef %15)
  br label %16

16:                                               ; preds = %32, %3
  %17 = call noundef i64 @_ZNK3pxr9rapidjson19GenericStringStreamINS0_4UTF8IcEEE4TellEv(ptr noundef nonnull align 8 dereferenceable(16) %10)
  %18 = load i64, ptr %9, align 8
  %19 = icmp ult i64 %17, %18
  %20 = xor i1 %19, true
  %21 = xor i1 %20, true
  br i1 %21, label %22, label %33

22:                                               ; preds = %16
  %23 = getelementptr inbounds nuw %"class.pxr::rapidjson::Writer", ptr %11, i32 0, i32 0
  %24 = load ptr, ptr %23, align 8
  store ptr %10, ptr %4, align 8
  store ptr %24, ptr %5, align 8
  %25 = load ptr, ptr %5, align 8
  %26 = load ptr, ptr %4, align 8
  %27 = call noundef signext i8 @_ZN3pxr9rapidjson19GenericStringStreamINS0_4UTF8IcEEE4TakeEv(ptr noundef nonnull align 8 dereferenceable(16) %26)
  call void @_ZN3pxr9rapidjson9PutUnsafeINS0_19BasicOStreamWrapperISoEEEEvRT_NS4_2ChE(ptr noundef nonnull align 8 dereferenceable(8) %25, i8 noundef signext %27)
  %28 = xor i1 true, true
  %29 = xor i1 %28, true
  %30 = xor i1 %29, true
  br i1 %30, label %31, label %32

31:                                               ; preds = %22
  store i1 false, ptr %6, align 1
  br label %34

32:                                               ; preds = %22
  br label %16, !llvm.loop !16

33:                                               ; preds = %16
  store i1 true, ptr %6, align 1
  br label %34

34:                                               ; preds = %33, %31
  %35 = load i1, ptr %6, align 1
  ret i1 %35
}

; Function Attrs: mustprogress uwtable
define linkonce_odr void @_ZN3pxr9rapidjson6WriterINS0_19BasicOStreamWrapperISoEENS0_4UTF8IcEES5_NS0_12CrtAllocatorELj0EE6PrefixENS0_4TypeE(ptr noundef nonnull align 8 dereferenceable(61) %0, i32 noundef %1) #4 comdat align 2 {
  %3 = alloca ptr, align 8
  %4 = alloca i32, align 4
  %5 = alloca ptr, align 8
  store ptr %0, ptr %3, align 8
  store i32 %1, ptr %4, align 4
  %6 = load ptr, ptr %3, align 8
  %7 = getelementptr inbounds nuw %"class.pxr::rapidjson::Writer", ptr %6, i32 0, i32 1
  %8 = call noundef i64 @_ZNK3pxr9rapidjson8internal5StackINS0_12CrtAllocatorEE7GetSizeEv(ptr noundef nonnull align 8 dereferenceable(48) %7)
  %9 = icmp ne i64 %8, 0
  %10 = xor i1 %9, true
  %11 = xor i1 %10, true
  br i1 %11, label %12, label %54

12:                                               ; preds = %2
  %13 = getelementptr inbounds nuw %"class.pxr::rapidjson::Writer", ptr %6, i32 0, i32 1
  %14 = call noundef ptr @_ZN3pxr9rapidjson8internal5StackINS0_12CrtAllocatorEE3TopINS0_6WriterINS0_19BasicOStreamWrapperISoEENS0_4UTF8IcEESA_S3_Lj0EE5LevelEEEPT_v(ptr noundef nonnull align 8 dereferenceable(48) %13)
  store ptr %14, ptr %5, align 8
  %15 = load ptr, ptr %5, align 8
  %16 = getelementptr inbounds nuw %"struct.pxr::rapidjson::Writer<pxr::rapidjson::BasicOStreamWrapper<std::basic_ostream<char>>>::Level", ptr %15, i32 0, i32 0
  %17 = load i64, ptr %16, align 8
  %18 = icmp ugt i64 %17, 0
  br i1 %18, label %19, label %37

19:                                               ; preds = %12
  %20 = load ptr, ptr %5, align 8
  %21 = getelementptr inbounds nuw %"struct.pxr::rapidjson::Writer<pxr::rapidjson::BasicOStreamWrapper<std::basic_ostream<char>>>::Level", ptr %20, i32 0, i32 1
  %22 = load i8, ptr %21, align 8
  %23 = trunc i8 %22 to i1
  br i1 %23, label %24, label %27

24:                                               ; preds = %19
  %25 = getelementptr inbounds nuw %"class.pxr::rapidjson::Writer", ptr %6, i32 0, i32 0
  %26 = load ptr, ptr %25, align 8
  call void @_ZN3pxr9rapidjson19BasicOStreamWrapperISoE3PutEc(ptr noundef nonnull align 8 dereferenceable(8) %26, i8 noundef signext 44)
  br label %36

27:                                               ; preds = %19
  %28 = getelementptr inbounds nuw %"class.pxr::rapidjson::Writer", ptr %6, i32 0, i32 0
  %29 = load ptr, ptr %28, align 8
  %30 = load ptr, ptr %5, align 8
  %31 = getelementptr inbounds nuw %"struct.pxr::rapidjson::Writer<pxr::rapidjson::BasicOStreamWrapper<std::basic_ostream<char>>>::Level", ptr %30, i32 0, i32 0
  %32 = load i64, ptr %31, align 8
  %33 = urem i64 %32, 2
  %34 = icmp eq i64 %33, 0
  %35 = select i1 %34, i8 44, i8 58
  call void @_ZN3pxr9rapidjson19BasicOStreamWrapperISoE3PutEc(ptr noundef nonnull align 8 dereferenceable(8) %29, i8 noundef signext %35)
  br label %36

36:                                               ; preds = %27, %24
  br label %37

37:                                               ; preds = %36, %12
  %38 = load ptr, ptr %5, align 8
  %39 = getelementptr inbounds nuw %"struct.pxr::rapidjson::Writer<pxr::rapidjson::BasicOStreamWrapper<std::basic_ostream<char>>>::Level", ptr %38, i32 0, i32 1
  %40 = load i8, ptr %39, align 8
  %41 = trunc i8 %40 to i1
  br i1 %41, label %49, label %42

42:                                               ; preds = %37
  %43 = load ptr, ptr %5, align 8
  %44 = getelementptr inbounds nuw %"struct.pxr::rapidjson::Writer<pxr::rapidjson::BasicOStreamWrapper<std::basic_ostream<char>>>::Level", ptr %43, i32 0, i32 0
  %45 = load i64, ptr %44, align 8
  %46 = urem i64 %45, 2
  %47 = icmp eq i64 %46, 0
  br i1 %47, label %48, label %49

48:                                               ; preds = %42
  br label %49

49:                                               ; preds = %48, %42, %37
  %50 = load ptr, ptr %5, align 8
  %51 = getelementptr inbounds nuw %"struct.pxr::rapidjson::Writer<pxr::rapidjson::BasicOStreamWrapper<std::basic_ostream<char>>>::Level", ptr %50, i32 0, i32 0
  %52 = load i64, ptr %51, align 8
  %53 = add i64 %52, 1
  store i64 %53, ptr %51, align 8
  br label %56

54:                                               ; preds = %2
  %55 = getelementptr inbounds nuw %"class.pxr::rapidjson::Writer", ptr %6, i32 0, i32 3
  store i8 1, ptr %55, align 4
  br label %56

56:                                               ; preds = %54, %49
  ret void
}

; Function Attrs: mustprogress uwtable
define linkonce_odr noundef zeroext i1 @_ZN3pxr9rapidjson6WriterINS0_19BasicOStreamWrapperISoEENS0_4UTF8IcEES5_NS0_12CrtAllocatorELj0EE8RawValueEPKcmNS0_4TypeE(ptr noundef nonnull align 8 dereferenceable(61) %0, ptr noundef %1, i64 noundef %2, i32 noundef %3) #4 comdat align 2 {
  %5 = alloca ptr, align 8
  %6 = alloca ptr, align 8
  %7 = alloca i64, align 8
  %8 = alloca i32, align 4
  store ptr %0, ptr %5, align 8
  store ptr %1, ptr %6, align 8
  store i64 %2, ptr %7, align 8
  store i32 %3, ptr %8, align 4
  %9 = load ptr, ptr %5, align 8
  %10 = load i32, ptr %8, align 4
  call void @_ZN3pxr9rapidjson6WriterINS0_19BasicOStreamWrapperISoEENS0_4UTF8IcEES5_NS0_12CrtAllocatorELj0EE6PrefixENS0_4TypeE(ptr noundef nonnull align 8 dereferenceable(61) %9, i32 noundef %10)
  %11 = load ptr, ptr %6, align 8
  %12 = load i64, ptr %7, align 8
  %13 = call noundef zeroext i1 @_ZN3pxr9rapidjson6WriterINS0_19BasicOStreamWrapperISoEENS0_4UTF8IcEES5_NS0_12CrtAllocatorELj0EE13WriteRawValueEPKcm(ptr noundef nonnull align 8 dereferenceable(61) %9, ptr noundef %11, i64 noundef %12)
  %14 = call noundef zeroext i1 @_ZN3pxr9rapidjson6WriterINS0_19BasicOStreamWrapperISoEENS0_4UTF8IcEES5_NS0_12CrtAllocatorELj0EE8EndValueEb(ptr noundef nonnull align 8 dereferenceable(61) %9, i1 noundef zeroext %13)
  ret i1 %14
}

; Function Attrs: mustprogress uwtable
define internal noundef zeroext i1 @_ZN12_GLOBAL__N_110_WriterFixIN3pxr9rapidjson6WriterINS2_19BasicOStreamWrapperISoEENS2_4UTF8IcEES7_NS2_12CrtAllocatorELj0EEEE6DoubleEd(ptr noundef nonnull align 8 dereferenceable(61) %0, double noundef %1) #4 align 2 {
  %3 = alloca ptr, align 8
  %4 = alloca double, align 8
  %5 = alloca i32, align 4
  %6 = alloca [32 x i8], align 16
  store ptr %0, ptr %3, align 8
  store double %1, ptr %4, align 8
  %7 = load ptr, ptr %3, align 8
  store i32 32, ptr %5, align 4
  %8 = load double, ptr %4, align 8
  %9 = getelementptr inbounds [32 x i8], ptr %6, i64 0, i64 0
  %10 = call noundef zeroext i1 @_ZN32pxrInternal_v0_24__pxrReserved__16TfDoubleToStringEdPcib(double noundef %8, ptr noundef %9, i32 noundef 32, i1 noundef zeroext true)
  %11 = getelementptr inbounds [32 x i8], ptr %6, i64 0, i64 0
  %12 = getelementptr inbounds [32 x i8], ptr %6, i64 0, i64 0
  %13 = call i64 @strlen(ptr noundef %12) #21
  %14 = call noundef zeroext i1 @_ZN3pxr9rapidjson6WriterINS0_19BasicOStreamWrapperISoEENS0_4UTF8IcEES5_NS0_12CrtAllocatorELj0EE8RawValueEPKcmNS0_4TypeE(ptr noundef nonnull align 8 dereferenceable(61) %7, ptr noundef %11, i64 noundef %13, i32 noundef 6)
  ret i1 %14
}

; Function Attrs: mustprogress uwtable
define internal noundef zeroext i1 @_ZN32pxrInternal_v0_24__pxrReserved__12_GLOBAL__N_120Js_PolymorphicWriterIN12_GLOBAL__N_110_WriterFixIN3pxr9rapidjson6WriterINS5_19BasicOStreamWrapperISoEENS5_4UTF8IcEESA_NS5_12CrtAllocatorELj0EEEEEE6DoubleEd(ptr noundef nonnull align 8 dereferenceable(69) %0, double noundef %1) unnamed_addr #4 align 2 {
  %3 = alloca ptr, align 8
  %4 = alloca double, align 8
  store ptr %0, ptr %3, align 8
  store double %1, ptr %4, align 8
  %5 = load ptr, ptr %3, align 8
  %6 = getelementptr inbounds i8, ptr %5, i64 8
  %7 = load double, ptr %4, align 8
  %8 = call noundef zeroext i1 @_ZN12_GLOBAL__N_110_WriterFixIN3pxr9rapidjson6WriterINS2_19BasicOStreamWrapperISoEENS2_4UTF8IcEES7_NS2_12CrtAllocatorELj0EEEE6DoubleEd(ptr noundef nonnull align 8 dereferenceable(61) %6, double noundef %7)
  ret i1 %8
}