; Function Attrs: mustprogress uwtable
define internal noundef zeroext i1 @_ZN32pxrInternal_v0_24__pxrReserved__12_GLOBAL__N_120Js_PolymorphicWriterIN12_GLOBAL__N_110_WriterFixIN3pxr9rapidjson6WriterINS5_19BasicOStreamWrapperISoEENS5_4UTF8IcEESA_NS5_12CrtAllocatorELj0EEEEEE6DoubleEd(ptr noundef nonnull align 8 captures(none) dereferenceable(69) %0, double noundef %1) unnamed_addr #3 align 2 {
  %3 = alloca [32 x i8], align 16
  %4 = getelementptr inbounds nuw i8, ptr %0, i64 8
  call void @llvm.lifetime.start.p0(i64 32, ptr nonnull %3)
  %5 = call noundef zeroext i1 @_ZN32pxrInternal_v0_24__pxrReserved__16TfDoubleToStringEdPcib(double noundef %1, ptr noundef nonnull %3, i32 noundef 32, i1 noundef zeroext true)
  %6 = call i64 @strlen(ptr noundef nonnull dereferenceable(1) %3) #28
  %7 = getelementptr inbounds nuw i8, ptr %0, i64 40
  %8 = load ptr, ptr %7, align 8
  %9 = getelementptr inbounds nuw i8, ptr %0, i64 32
  %10 = load ptr, ptr %9, align 8
  %.not.i.i.i = icmp eq ptr %8, %10
  br i1 %.not.i.i.i, label %26, label %11

11:                                               ; preds = %2
  %12 = getelementptr inbounds i8, ptr %8, i64 -16
  %13 = load i64, ptr %12, align 8
  %.not6.i.i.i = icmp eq i64 %13, 0
  br i1 %.not6.i.i.i, label %24, label %.sink.split.i.i.i

.sink.split.i.i.i:                                ; preds = %11
  %14 = getelementptr inbounds i8, ptr %8, i64 -8
  %15 = load i8, ptr %14, align 8
  %16 = trunc i8 %15 to i1
  %17 = load ptr, ptr %4, align 8
  %18 = and i64 %13, 1
  %19 = icmp eq i64 %18, 0
  %20 = or i1 %19, %16
  %.sink7.i.i.i = select i1 %20, i8 44, i8 58
  %21 = load ptr, ptr %17, align 8
  %22 = call noundef nonnull align 8 dereferenceable(8) ptr @_ZNSo3putEc(ptr noundef nonnull align 8 dereferenceable(8) %21, i8 noundef signext %.sink7.i.i.i)
  %.pre.i.i = load i64, ptr %12, align 8
  %23 = add i64 %.pre.i.i, 1
  br label %24

24:                                               ; preds = %.sink.split.i.i.i, %11
  %25 = phi i64 [ %23, %.sink.split.i.i.i ], [ 1, %11 ]
  store i64 %25, ptr %12, align 8
  br label %_ZN3pxr9rapidjson6WriterINS0_19BasicOStreamWrapperISoEENS0_4UTF8IcEES5_NS0_12CrtAllocatorELj0EE6PrefixENS0_4TypeE.exit.i.i

26:                                               ; preds = %2
  %27 = getelementptr inbounds nuw i8, ptr %0, i64 68
  store i8 1, ptr %27, align 4
  br label %_ZN3pxr9rapidjson6WriterINS0_19BasicOStreamWrapperISoEENS0_4UTF8IcEES5_NS0_12CrtAllocatorELj0EE6PrefixENS0_4TypeE.exit.i.i

_ZN3pxr9rapidjson6WriterINS0_19BasicOStreamWrapperISoEENS0_4UTF8IcEES5_NS0_12CrtAllocatorELj0EE6PrefixENS0_4TypeE.exit.i.i: ; preds = %26, %24
  %.not.i3.i.i = icmp eq i64 %6, 0
  br i1 %.not.i3.i.i, label %_ZN3pxr9rapidjson6WriterINS0_19BasicOStreamWrapperISoEENS0_4UTF8IcEES5_NS0_12CrtAllocatorELj0EE13WriteRawValueEPKcm.exit.i.i, label %.lr.ph.i.i.preheader.i

.lr.ph.i.i.preheader.i:                           ; preds = %_ZN3pxr9rapidjson6WriterINS0_19BasicOStreamWrapperISoEENS0_4UTF8IcEES5_NS0_12CrtAllocatorELj0EE6PrefixENS0_4TypeE.exit.i.i
  %28 = getelementptr i8, ptr %3, i64 %6
  %scevgep.i = getelementptr i8, ptr %28, i64 -1
  br label %.lr.ph.i.i.i

.lr.ph.i.i.i:                                     ; preds = %.lr.ph.i.i.i, %.lr.ph.i.i.preheader.i
  %.sroa.0.07.i.i.i = phi ptr [ %30, %.lr.ph.i.i.i ], [ %3, %.lr.ph.i.i.preheader.i ]
  %29 = load ptr, ptr %4, align 8
  %30 = getelementptr inbounds nuw i8, ptr %.sroa.0.07.i.i.i, i64 1
  %31 = load i8, ptr %.sroa.0.07.i.i.i, align 1
  %32 = load ptr, ptr %29, align 8
  %33 = call noundef nonnull align 8 dereferenceable(8) ptr @_ZNSo3putEc(ptr noundef nonnull align 8 dereferenceable(8) %32, i8 noundef signext %31)
  %exitcond.not.i = icmp eq ptr %.sroa.0.07.i.i.i, %scevgep.i
  br i1 %exitcond.not.i, label %_ZN3pxr9rapidjson6WriterINS0_19BasicOStreamWrapperISoEENS0_4UTF8IcEES5_NS0_12CrtAllocatorELj0EE13WriteRawValueEPKcm.exit.i.i, label %.lr.ph.i.i.i

_ZN3pxr9rapidjson6WriterINS0_19BasicOStreamWrapperISoEENS0_4UTF8IcEES5_NS0_12CrtAllocatorELj0EE13WriteRawValueEPKcm.exit.i.i: ; preds = %.lr.ph.i.i.i, %_ZN3pxr9rapidjson6WriterINS0_19BasicOStreamWrapperISoEENS0_4UTF8IcEES5_NS0_12CrtAllocatorELj0EE6PrefixENS0_4TypeE.exit.i.i
  %34 = load ptr, ptr %7, align 8
  %35 = load ptr, ptr %9, align 8
  %36 = icmp eq ptr %34, %35
  br i1 %36, label %37, label %_ZN12_GLOBAL__N_110_WriterFixIN3pxr9rapidjson6WriterINS2_19BasicOStreamWrapperISoEENS2_4UTF8IcEES7_NS2_12CrtAllocatorELj0EEEE6DoubleEd.exit

37:                                               ; preds = %_ZN3pxr9rapidjson6WriterINS0_19BasicOStreamWrapperISoEENS0_4UTF8IcEES5_NS0_12CrtAllocatorELj0EE13WriteRawValueEPKcm.exit.i.i
  %38 = load ptr, ptr %4, align 8
  %39 = load ptr, ptr %38, align 8
  %40 = call noundef nonnull align 8 dereferenceable(8) ptr @_ZNSo5flushEv(ptr noundef nonnull align 8 dereferenceable(8) %39)
  br label %_ZN12_GLOBAL__N_110_WriterFixIN3pxr9rapidjson6WriterINS2_19BasicOStreamWrapperISoEENS2_4UTF8IcEES7_NS2_12CrtAllocatorELj0EEEE6DoubleEd.exit

_ZN12_GLOBAL__N_110_WriterFixIN3pxr9rapidjson6WriterINS2_19BasicOStreamWrapperISoEENS2_4UTF8IcEES7_NS2_12CrtAllocatorELj0EEEE6DoubleEd.exit: ; preds = %_ZN3pxr9rapidjson6WriterINS0_19BasicOStreamWrapperISoEENS0_4UTF8IcEES5_NS0_12CrtAllocatorELj0EE13WriteRawValueEPKcm.exit.i.i, %37
  call void @llvm.lifetime.end.p0(i64 32, ptr nonnull %3)
  ret i1 true
}